target datalayout = "e-m:e-p270:32:32-p271:32:32-p272:64:64-i64:64-i128:128-f80:128-n8:16:32:64-S128"
target triple = "x86_64-pc-linux-gnu"

@.str.3 = private unnamed_addr constant [4 x i8] c"md5\00", align 1
@.str.4 = private unnamed_addr constant [17 x i8] c"0123456789abcdef\00", align 1

; Function Attrs: nounwind uwtable
define dso_local i32 @get_password_type(ptr noundef %0) #0 {
  %2 = alloca i32, align 4
  %3 = alloca ptr, align 8
  %4 = alloca ptr, align 8
  %5 = alloca i32, align 4
  %6 = alloca i32, align 4
  %7 = alloca i32, align 4
  %8 = alloca [32 x i8], align 16
  %9 = alloca [32 x i8], align 16
  %10 = alloca i32, align 4
  store ptr %0, ptr %3, align 8
  call void @llvm.lifetime.start.p0(i64 8, ptr %4) #6
  call void @llvm.lifetime.start.p0(i64 4, ptr %5) #6
  call void @llvm.lifetime.start.p0(i64 4, ptr %6) #6
  store i32 0, ptr %6, align 4
  call void @llvm.lifetime.start.p0(i64 4, ptr %7) #6
  call void @llvm.lifetime.start.p0(i64 32, ptr %8) #6
  call void @llvm.lifetime.start.p0(i64 32, ptr %9) #6
  %11 = load ptr, ptr %3, align 8
  %12 = call i32 @strncmp(ptr noundef %11, ptr noundef @.str.3, i64 noundef 3) #7
  %13 = icmp eq i32 %12, 0
  br i1 %13, label %14, label %24

14:                                               ; preds = %1
  %15 = load ptr, ptr %3, align 8
  %16 = call i64 @strlen(ptr noundef %15) #7
  %17 = icmp eq i64 %16, 35
  br i1 %17, label %18, label %24

18:                                               ; preds = %14
  %19 = load ptr, ptr %3, align 8
  %20 = getelementptr inbounds i8, ptr %19, i64 3
  %21 = call i64 @strspn(ptr noundef %20, ptr noundef @.str.4) #7
  %22 = icmp eq i64 %21, 32
  br i1 %22, label %23, label %24

23:                                               ; preds = %18
  store i32 1, ptr %2, align 4
  store i32 1, ptr %10, align 4
  br label %31

24:                                               ; preds = %18, %14, %1
  %25 = load ptr, ptr %3, align 8
  %26 = getelementptr inbounds [32 x i8], ptr %8, i64 0, i64 0
  %27 = getelementptr inbounds [32 x i8], ptr %9, i64 0, i64 0
  %28 = call zeroext i1 @parse_scram_secret(ptr noundef %25, ptr noundef %5, ptr noundef %7, ptr noundef %6, ptr noundef %4, ptr noundef %26, ptr noundef %27)
  br i1 %28, label %29, label %30

29:                                               ; preds = %24
  store i32 2, ptr %2, align 4
  store i32 1, ptr %10, align 4
  br label %31

30:                                               ; preds = %24
  store i32 0, ptr %2, align 4
  store i32 1, ptr %10, align 4
  br label %31

31:                                               ; preds = %30, %29, %23
  call void @llvm.lifetime.end.p0(i64 32, ptr %9) #6
  call void @llvm.lifetime.end.p0(i64 32, ptr %8) #6
  call void @llvm.lifetime.end.p0(i64 4, ptr %7) #6
  call void @llvm.lifetime.end.p0(i64 4, ptr %6) #6
  call void @llvm.lifetime.end.p0(i64 4, ptr %5) #6
  call void @llvm.lifetime.end.p0(i64 8, ptr %4) #6
  %32 = load i32, ptr %2, align 4
  ret i32 %32
}