; Function Attrs: nounwind uwtable
define dso_local range(i32 0, 3) i32 @get_password_type(ptr noundef %0) local_unnamed_addr #0 {
sub_0:
  %1 = alloca ptr, align 8
  %2 = alloca i32, align 4
  %3 = alloca i32, align 4
  %4 = alloca i32, align 4
  %5 = alloca [32 x i8], align 16
  %6 = alloca [32 x i8], align 16
  call void @llvm.lifetime.start.p0(i64 8, ptr nonnull %1) #6
  call void @llvm.lifetime.start.p0(i64 4, ptr nonnull %2) #6
  call void @llvm.lifetime.start.p0(i64 4, ptr nonnull %3) #6
  store i32 0, ptr %3, align 4
  call void @llvm.lifetime.start.p0(i64 4, ptr nonnull %4) #6
  call void @llvm.lifetime.start.p0(i64 32, ptr nonnull %5) #6
  call void @llvm.lifetime.start.p0(i64 32, ptr nonnull %6) #6
  %7 = load i8, ptr %0, align 1
  %.not = icmp eq i8 %7, 109
  br i1 %.not, label %sub_1, label %.tail.thread

sub_1:                                            ; preds = %sub_0
  %8 = getelementptr inbounds nuw i8, ptr %0, i64 1
  %9 = load i8, ptr %8, align 1
  %.not4 = icmp eq i8 %9, 100
  br i1 %.not4, label %.tail, label %.tail.thread

.tail:                                            ; preds = %sub_1
  %10 = getelementptr inbounds nuw i8, ptr %0, i64 2
  %11 = load i8, ptr %10, align 1
  %12 = icmp eq i8 %11, 53
  br i1 %12, label %13, label %.tail.thread

13:                                               ; preds = %.tail
  %14 = tail call i64 @strlen(ptr noundef nonnull dereferenceable(1) %0) #7
  %15 = icmp eq i64 %14, 35
  br i1 %15, label %16, label %.tail.thread

16:                                               ; preds = %13
  %17 = getelementptr inbounds nuw i8, ptr %0, i64 3
  %18 = tail call i64 @strspn(ptr noundef nonnull %17, ptr noundef nonnull @.str.4) #7
  %19 = icmp eq i64 %18, 32
  br i1 %19, label %21, label %.tail.thread

.tail.thread:                                     ; preds = %sub_1, %sub_0, %16, %13, %.tail
  %20 = call zeroext i1 @parse_scram_secret(ptr noundef nonnull %0, ptr noundef nonnull %2, ptr noundef nonnull %4, ptr noundef nonnull %3, ptr noundef nonnull %1, ptr noundef nonnull %5, ptr noundef nonnull %6) #6
  %. = select i1 %20, i32 2, i32 0
  br label %21

21:                                               ; preds = %.tail.thread, %16
  %.0 = phi i32 [ 1, %16 ], [ %., %.tail.thread ]
  call void @llvm.lifetime.end.p0(i64 32, ptr nonnull %6) #6
  call void @llvm.lifetime.end.p0(i64 32, ptr nonnull %5) #6
  call void @llvm.lifetime.end.p0(i64 4, ptr nonnull %4) #6
  call void @llvm.lifetime.end.p0(i64 4, ptr nonnull %3) #6
  call void @llvm.lifetime.end.p0(i64 4, ptr nonnull %2) #6
  call void @llvm.lifetime.end.p0(i64 8, ptr nonnull %1) #6
  ret i32 %.0
}